target datalayout = "e-m:e-p270:32:32-p271:32:32-p272:64:64-i64:64-i128:128-f80:128-n8:16:32:64-S128"
target triple = "x86_64-pc-linux-gnu"

; Function Attrs: nounwind uwtable
define float @Saig_ManComputeSwitching(i32 noundef %0, i32 noundef %1) #0 {
  %3 = alloca i32, align 4
  %4 = alloca i32, align 4
  %5 = alloca i32, align 4
  store i32 %0, ptr %3, align 4, !tbaa !10
  store i32 %1, ptr %4, align 4, !tbaa !10
  call void @llvm.lifetime.start.p0(i64 4, ptr %5) #9
  %6 = load i32, ptr %4, align 4, !tbaa !10
  %7 = mul nsw i32 32, %6
  store i32 %7, ptr %5, align 4, !tbaa !10
  %8 = load i32, ptr %3, align 4, !tbaa !10
  %9 = sitofp i32 %8 to float
  %10 = fmul float 2.000000e+00, %9
  %11 = load i32, ptr %5, align 4, !tbaa !10
  %12 = sitofp i32 %11 to float
  %13 = fdiv float %10, %12
  %14 = load i32, ptr %5, align 4, !tbaa !10
  %15 = load i32, ptr %3, align 4, !tbaa !10
  %16 = sub nsw i32 %14, %15
  %17 = sitofp i32 %16 to float
  %18 = fmul float %13, %17
  %19 = load i32, ptr %5, align 4, !tbaa !10
  %20 = sitofp i32 %19 to float
  %21 = fdiv float %18, %20
  call void @llvm.lifetime.end.p0(i64 4, ptr %5) #9
  ret float %21
}